; Function Attrs: mustprogress uwtable
define dso_local void @_ZN7testing8internal7PrintToEPKcPSo(ptr noundef %0, ptr noundef %1) local_unnamed_addr #3 {
  %3 = icmp eq ptr %0, null
  br i1 %3, label %4, label %6

4:                                                ; preds = %2
  %5 = tail call noundef nonnull align 8 dereferenceable(8) ptr @_ZSt16__ostream_insertIcSt11char_traitsIcEERSt13basic_ostreamIT_T0_ES6_PKS3_l(ptr noundef nonnull align 8 dereferenceable(8) %1, ptr noundef nonnull @.str.518, i64 noundef 4)
  br label %_ZN7testing8internal12_GLOBAL__N_114PrintCStringToIcEEvPKT_PSo.exit

6:                                                ; preds = %2
  %7 = tail call noundef nonnull align 8 dereferenceable(8) ptr @_ZNSo9_M_insertIPKvEERSoT_(ptr noundef nonnull align 8 dereferenceable(8) %1, ptr noundef nonnull %0)
  %8 = tail call noundef nonnull align 8 dereferenceable(8) ptr @_ZSt16__ostream_insertIcSt11char_traitsIcEERSt13basic_ostreamIT_T0_ES6_PKS3_l(ptr noundef nonnull align 8 dereferenceable(8) %7, ptr noundef nonnull @.str.534, i64 noundef 13)
  %9 = tail call noundef i64 @strlen(ptr noundef nonnull dereferenceable(1) %0) #57
  %10 = tail call fastcc noundef i32 @_ZN7testing8internalL20PrintCharsAsStringToIcEENS0_10CharFormatEPKT_mPSo(ptr noundef nonnull %0, i64 noundef %9, ptr noundef nonnull %1)
  br label %_ZN7testing8internal12_GLOBAL__N_114PrintCStringToIcEEvPKT_PSo.exit

_ZN7testing8internal12_GLOBAL__N_114PrintCStringToIcEEvPKT_PSo.exit: ; preds = %4, %6
  ret void
}